(dp0
I2005
(lp1
S'http://storage.googleapis.com/patents/grant_full_text/2005/ipg050104.zip'
p2
aS'http://storage.googleapis.com/patents/grant_full_text/2005/ipg050111.zip'
p3
aS'http://storage.googleapis.com/patents/grant_full_text/2005/ipg050118.zip'
p4
aS'http://storage.googleapis.com/patents/grant_full_text/2005/ipg050125.zip'
p5
aS'http://storage.googleapis.com/patents/grant_full_text/2005/ipg050201.zip'
p6
aS'http://storage.googleapis.com/patents/grant_full_text/2005/ipg050208.zip'
p7
aS'http://storage.googleapis.com/patents/grant_full_text/2005/ipg050215.zip'
p8
aS'http://storage.googleapis.com/patents/grant_full_text/2005/ipg050222.zip'
p9
aS'http://storage.googleapis.com/patents/grant_full_text/2005/ipg050301.zip'
p10
aS'http://storage.googleapis.com/patents/grant_full_text/2005/ipg050308.zip'
p11
aS'http://storage.googleapis.com/patents/grant_full_text/2005/ipg050315.zip'
p12
aS'http://storage.googleapis.com/patents/grant_full_text/2005/ipg050322.zip'
p13
aS'http://storage.googleapis.com/patents/grant_full_text/2005/ipg050329.zip'
p14
aS'http://storage.googleapis.com/patents/grant_full_text/2005/ipg050405.zip'
p15
aS'http://storage.googleapis.com/patents/grant_full_text/2005/ipg050412.zip'
p16
aS'http://storage.googleapis.com/patents/grant_full_text/2005/ipg050419.zip'
p17
aS'http://storage.googleapis.com/patents/grant_full_text/2005/ipg050426.zip'
p18
aS'http://storage.googleapis.com/patents/grant_full_text/2005/ipg050503.zip'
p19
aS'http://storage.googleapis.com/patents/grant_full_text/2005/ipg050510.zip'
p20
aS'http://storage.googleapis.com/patents/grant_full_text/2005/ipg050517.zip'
p21
aS'http://storage.googleapis.com/patents/grant_full_text/2005/ipg050524.zip'
p22
aS'http://storage.googleapis.com/patents/grant_full_text/2005/ipg050531.zip'
p23
aS'http://storage.googleapis.com/patents/grant_full_text/2005/ipg050607.zip'
p24
aS'http://storage.googleapis.com/patents/grant_full_text/2005/ipg050614.zip'
p25
aS'http://storage.googleapis.com/patents/grant_full_text/2005/ipg050621.zip'
p26
aS'http://storage.googleapis.com/patents/grant_full_text/2005/ipg050628.zip'
p27
aS'http://storage.googleapis.com/patents/grant_full_text/2005/ipg050705.zip'
p28
aS'http://storage.googleapis.com/patents/grant_full_text/2005/ipg050712.zip'
p29
aS'http://storage.googleapis.com/patents/grant_full_text/2005/ipg050719.zip'
p30
aS'http://storage.googleapis.com/patents/grant_full_text/2005/ipg050726.zip'
p31
aS'http://storage.googleapis.com/patents/grant_full_text/2005/ipg050802.zip'
p32
aS'http://storage.googleapis.com/patents/grant_full_text/2005/ipg050809.zip'
p33
aS'http://storage.googleapis.com/patents/grant_full_text/2005/ipg050816.zip'
p34
aS'http://storage.googleapis.com/patents/grant_full_text/2005/ipg050823.zip'
p35
aS'http://storage.googleapis.com/patents/grant_full_text/2005/ipg050830.zip'
p36
aS'http://storage.googleapis.com/patents/grant_full_text/2005/ipg050906.zip'
p37
aS'http://storage.googleapis.com/patents/grant_full_text/2005/ipg050913.zip'
p38
aS'http://storage.googleapis.com/patents/grant_full_text/2005/ipg050920.zip'
p39
aS'http://storage.googleapis.com/patents/grant_full_text/2005/ipg050927.zip'
p40
aS'http://storage.googleapis.com/patents/grant_full_text/2005/ipg051004.zip'
p41
aS'http://storage.googleapis.com/patents/grant_full_text/2005/ipg051011.zip'
p42
aS'http://storage.googleapis.com/patents/grant_full_text/2005/ipg051018.zip'
p43
aS'http://storage.googleapis.com/patents/grant_full_text/2005/ipg051025.zip'
p44
aS'http://storage.googleapis.com/patents/grant_full_text/2005/ipg051101.zip'
p45
aS'http://storage.googleapis.com/patents/grant_full_text/2005/ipg051108.zip'
p46
aS'http://storage.googleapis.com/patents/grant_full_text/2005/ipg051115.zip'
p47
aS'http://storage.googleapis.com/patents/grant_full_text/2005/ipg051122.zip'
p48
aS'http://storage.googleapis.com/patents/grant_full_text/2005/ipg051129.zip'
p49
aS'http://storage.googleapis.com/patents/grant_full_text/2005/ipg051206.zip'
p50
aS'http://storage.googleapis.com/patents/grant_full_text/2005/ipg051213.zip'
p51
aS'http://storage.googleapis.com/patents/grant_full_text/2005/ipg051220.zip'
p52
aS'http://storage.googleapis.com/patents/grant_full_text/2005/ipg051227.zip'
p53
asI2006
(lp54
S'http://storage.googleapis.com/patents/grant_full_text/2006/ipg060103.zip'
p55
aS'http://storage.googleapis.com/patents/grant_full_text/2006/ipg060110.zip'
p56
aS'http://storage.googleapis.com/patents/grant_full_text/2006/ipg060117.zip'
p57
aS'http://storage.googleapis.com/patents/grant_full_text/2006/ipg060124.zip'
p58
aS'http://storage.googleapis.com/patents/grant_full_text/2006/ipg060131.zip'
p59
aS'http://storage.googleapis.com/patents/grant_full_text/2006/ipg060207.zip'
p60
aS'http://storage.googleapis.com/patents/grant_full_text/2006/ipg060214.zip'
p61
aS'http://storage.googleapis.com/patents/grant_full_text/2006/ipg060221.zip'
p62
aS'http://storage.googleapis.com/patents/grant_full_text/2006/ipg060228.zip'
p63
aS'http://storage.googleapis.com/patents/grant_full_text/2006/ipg060307.zip'
p64
aS'http://storage.googleapis.com/patents/grant_full_text/2006/ipg060314.zip'
p65
aS'http://storage.googleapis.com/patents/grant_full_text/2006/ipg060321.zip'
p66
aS'http://storage.googleapis.com/patents/grant_full_text/2006/ipg060328.zip'
p67
aS'http://storage.googleapis.com/patents/grant_full_text/2006/ipg060404.zip'
p68
aS'http://storage.googleapis.com/patents/grant_full_text/2006/ipg060411.zip'
p69
aS'http://storage.googleapis.com/patents/grant_full_text/2006/ipg060418.zip'
p70
aS'http://storage.googleapis.com/patents/grant_full_text/2006/ipg060425.zip'
p71
aS'http://storage.googleapis.com/patents/grant_full_text/2006/ipg060502.zip'
p72
aS'http://storage.googleapis.com/patents/grant_full_text/2006/ipg060509.zip'
p73
aS'http://storage.googleapis.com/patents/grant_full_text/2006/ipg060516.zip'
p74
aS'http://storage.googleapis.com/patents/grant_full_text/2006/ipg060523.zip'
p75
aS'http://storage.googleapis.com/patents/grant_full_text/2006/ipg060530.zip'
p76
aS'http://storage.googleapis.com/patents/grant_full_text/2006/ipg060606.zip'
p77
aS'http://storage.googleapis.com/patents/grant_full_text/2006/ipg060613.zip'
p78
aS'http://storage.googleapis.com/patents/grant_full_text/2006/ipg060620.zip'
p79
aS'http://storage.googleapis.com/patents/grant_full_text/2006/ipg060627.zip'
p80
aS'http://storage.googleapis.com/patents/grant_full_text/2006/ipg060704.zip'
p81
aS'http://storage.googleapis.com/patents/grant_full_text/2006/ipg060711.zip'
p82
aS'http://storage.googleapis.com/patents/grant_full_text/2006/ipg060718.zip'
p83
aS'http://storage.googleapis.com/patents/grant_full_text/2006/ipg060725.zip'
p84
aS'http://storage.googleapis.com/patents/grant_full_text/2006/ipg060801.zip'
p85
aS'http://storage.googleapis.com/patents/grant_full_text/2006/ipg060808.zip'
p86
aS'http://storage.googleapis.com/patents/grant_full_text/2006/ipg060815.zip'
p87
aS'http://storage.googleapis.com/patents/grant_full_text/2006/ipg060822.zip'
p88
aS'http://storage.googleapis.com/patents/grant_full_text/2006/ipg060829.zip'
p89
aS'http://storage.googleapis.com/patents/grant_full_text/2006/ipg060905.zip'
p90
aS'http://storage.googleapis.com/patents/grant_full_text/2006/ipg060912.zip'
p91
aS'http://storage.googleapis.com/patents/grant_full_text/2006/ipg060919.zip'
p92
aS'http://storage.googleapis.com/patents/grant_full_text/2006/ipg060926.zip'
p93
aS'http://storage.googleapis.com/patents/grant_full_text/2006/ipg061003.zip'
p94
aS'http://storage.googleapis.com/patents/grant_full_text/2006/ipg061010.zip'
p95
aS'http://storage.googleapis.com/patents/grant_full_text/2006/ipg061017.zip'
p96
aS'http://storage.googleapis.com/patents/grant_full_text/2006/ipg061024.zip'
p97
aS'http://storage.googleapis.com/patents/grant_full_text/2006/ipg061031.zip'
p98
aS'http://storage.googleapis.com/patents/grant_full_text/2006/ipg061107.zip'
p99
aS'http://storage.googleapis.com/patents/grant_full_text/2006/ipg061114.zip'
p100
aS'http://storage.googleapis.com/patents/grant_full_text/2006/ipg061121.zip'
p101
aS'http://storage.googleapis.com/patents/grant_full_text/2006/ipg061128.zip'
p102
aS'http://storage.googleapis.com/patents/grant_full_text/2006/ipg061205.zip'
p103
aS'http://storage.googleapis.com/patents/grant_full_text/2006/ipg061212.zip'
p104
aS'http://storage.googleapis.com/patents/grant_full_text/2006/ipg061219.zip'
p105
aS'http://storage.googleapis.com/patents/grant_full_text/2006/ipg061226.zip'
p106
asI2007
(lp107
S'http://storage.googleapis.com/patents/grant_full_text/2007/ipg070102.zip'
p108
aS'http://storage.googleapis.com/patents/grant_full_text/2007/ipg070109.zip'
p109
aS'http://storage.googleapis.com/patents/grant_full_text/2007/ipg070116.zip'
p110
aS'http://storage.googleapis.com/patents/grant_full_text/2007/ipg070123.zip'
p111
aS'http://storage.googleapis.com/patents/grant_full_text/2007/ipg070130.zip'
p112
aS'http://storage.googleapis.com/patents/grant_full_text/2007/ipg070206.zip'
p113
aS'http://storage.googleapis.com/patents/grant_full_text/2007/ipg070213.zip'
p114
aS'http://storage.googleapis.com/patents/grant_full_text/2007/ipg070220.zip'
p115
aS'http://storage.googleapis.com/patents/grant_full_text/2007/ipg070227.zip'
p116
aS'http://storage.googleapis.com/patents/grant_full_text/2007/ipg070306.zip'
p117
aS'http://storage.googleapis.com/patents/grant_full_text/2007/ipg070313.zip'
p118
aS'http://storage.googleapis.com/patents/grant_full_text/2007/ipg070320.zip'
p119
aS'http://storage.googleapis.com/patents/grant_full_text/2007/ipg070327.zip'
p120
aS'http://storage.googleapis.com/patents/grant_full_text/2007/ipg070403.zip'
p121
aS'http://storage.googleapis.com/patents/grant_full_text/2007/ipg070410.zip'
p122
aS'http://storage.googleapis.com/patents/grant_full_text/2007/ipg070417.zip'
p123
aS'http://storage.googleapis.com/patents/grant_full_text/2007/ipg070424.zip'
p124
aS'http://storage.googleapis.com/patents/grant_full_text/2007/ipg070501.zip'
p125
aS'http://storage.googleapis.com/patents/grant_full_text/2007/ipg070508.zip'
p126
aS'http://storage.googleapis.com/patents/grant_full_text/2007/ipg070515.zip'
p127
aS'http://storage.googleapis.com/patents/grant_full_text/2007/ipg070522.zip'
p128
aS'http://storage.googleapis.com/patents/grant_full_text/2007/ipg070529.zip'
p129
aS'http://storage.googleapis.com/patents/grant_full_text/2007/ipg070605.zip'
p130
aS'http://storage.googleapis.com/patents/grant_full_text/2007/ipg070612.zip'
p131
aS'http://storage.googleapis.com/patents/grant_full_text/2007/ipg070619.zip'
p132
aS'http://storage.googleapis.com/patents/grant_full_text/2007/ipg070626.zip'
p133
aS'http://storage.googleapis.com/patents/grant_full_text/2007/ipg070703.zip'
p134
aS'http://storage.googleapis.com/patents/grant_full_text/2007/ipg070710.zip'
p135
aS'http://storage.googleapis.com/patents/grant_full_text/2007/ipg070717.zip'
p136
aS'http://storage.googleapis.com/patents/grant_full_text/2007/ipg070724.zip'
p137
aS'http://storage.googleapis.com/patents/grant_full_text/2007/ipg070731.zip'
p138
aS'http://storage.googleapis.com/patents/grant_full_text/2007/ipg070807.zip'
p139
aS'http://storage.googleapis.com/patents/grant_full_text/2007/ipg070814.zip'
p140
aS'http://storage.googleapis.com/patents/grant_full_text/2007/ipg070821.zip'
p141
aS'http://storage.googleapis.com/patents/grant_full_text/2007/ipg070828.zip'
p142
aS'http://storage.googleapis.com/patents/grant_full_text/2007/ipg070904.zip'
p143
aS'http://storage.googleapis.com/patents/grant_full_text/2007/ipg070911.zip'
p144
aS'http://storage.googleapis.com/patents/grant_full_text/2007/ipg070918.zip'
p145
aS'http://storage.googleapis.com/patents/grant_full_text/2007/ipg070925.zip'
p146
aS'http://storage.googleapis.com/patents/grant_full_text/2007/ipg071002.zip'
p147
aS'http://storage.googleapis.com/patents/grant_full_text/2007/ipg071009.zip'
p148
aS'http://storage.googleapis.com/patents/grant_full_text/2007/ipg071016.zip'
p149
aS'http://storage.googleapis.com/patents/grant_full_text/2007/ipg071023.zip'
p150
aS'http://storage.googleapis.com/patents/grant_full_text/2007/ipg071030.zip'
p151
aS'http://storage.googleapis.com/patents/grant_full_text/2007/ipg071106.zip'
p152
aS'http://storage.googleapis.com/patents/grant_full_text/2007/ipg071113.zip'
p153
aS'http://storage.googleapis.com/patents/grant_full_text/2007/ipg071120.zip'
p154
aS'http://storage.googleapis.com/patents/grant_full_text/2007/ipg071127.zip'
p155
aS'http://storage.googleapis.com/patents/grant_full_text/2007/ipg071204.zip'
p156
aS'http://storage.googleapis.com/patents/grant_full_text/2007/ipg071211.zip'
p157
aS'http://storage.googleapis.com/patents/grant_full_text/2007/ipg071218.zip'
p158
aS'http://storage.googleapis.com/patents/grant_full_text/2007/ipg071225.zip'
p159
asI2008
(lp160
S'http://storage.googleapis.com/patents/grant_full_text/2008/ipg080101.zip'
p161
aS'http://storage.googleapis.com/patents/grant_full_text/2008/ipg080108.zip'
p162
aS'http://storage.googleapis.com/patents/grant_full_text/2008/ipg080115.zip'
p163
aS'http://storage.googleapis.com/patents/grant_full_text/2008/ipg080122.zip'
p164
aS'http://storage.googleapis.com/patents/grant_full_text/2008/ipg080129.zip'
p165
aS'http://storage.googleapis.com/patents/grant_full_text/2008/ipg080205.zip'
p166
aS'http://storage.googleapis.com/patents/grant_full_text/2008/ipg080212.zip'
p167
aS'http://storage.googleapis.com/patents/grant_full_text/2008/ipg080219.zip'
p168
aS'http://storage.googleapis.com/patents/grant_full_text/2008/ipg080226.zip'
p169
aS'http://storage.googleapis.com/patents/grant_full_text/2008/ipg080304.zip'
p170
aS'http://storage.googleapis.com/patents/grant_full_text/2008/ipg080311.zip'
p171
aS'http://storage.googleapis.com/patents/grant_full_text/2008/ipg080318.zip'
p172
aS'http://storage.googleapis.com/patents/grant_full_text/2008/ipg080325.zip'
p173
aS'http://storage.googleapis.com/patents/grant_full_text/2008/ipg080401.zip'
p174
aS'http://storage.googleapis.com/patents/grant_full_text/2008/ipg080408.zip'
p175
aS'http://storage.googleapis.com/patents/grant_full_text/2008/ipg080415.zip'
p176
aS'http://storage.googleapis.com/patents/grant_full_text/2008/ipg080422.zip'
p177
aS'http://storage.googleapis.com/patents/grant_full_text/2008/ipg080429.zip'
p178
aS'http://storage.googleapis.com/patents/grant_full_text/2008/ipg080506.zip'
p179
aS'http://storage.googleapis.com/patents/grant_full_text/2008/ipg080513.zip'
p180
aS'http://storage.googleapis.com/patents/grant_full_text/2008/ipg080520.zip'
p181
aS'http://storage.googleapis.com/patents/grant_full_text/2008/ipg080527.zip'
p182
aS'http://storage.googleapis.com/patents/grant_full_text/2008/ipg080603.zip'
p183
aS'http://storage.googleapis.com/patents/grant_full_text/2008/ipg080610.zip'
p184
aS'http://storage.googleapis.com/patents/grant_full_text/2008/ipg080617.zip'
p185
aS'http://storage.googleapis.com/patents/grant_full_text/2008/ipg080624.zip'
p186
aS'http://storage.googleapis.com/patents/grant_full_text/2008/ipg080701.zip'
p187
aS'http://storage.googleapis.com/patents/grant_full_text/2008/ipg080708.zip'
p188
aS'http://storage.googleapis.com/patents/grant_full_text/2008/ipg080715.zip'
p189
aS'http://storage.googleapis.com/patents/grant_full_text/2008/ipg080722.zip'
p190
aS'http://storage.googleapis.com/patents/grant_full_text/2008/ipg080729.zip'
p191
aS'http://storage.googleapis.com/patents/grant_full_text/2008/ipg080805.zip'
p192
aS'http://storage.googleapis.com/patents/grant_full_text/2008/ipg080812.zip'
p193
aS'http://storage.googleapis.com/patents/grant_full_text/2008/ipg080819.zip'
p194
aS'http://storage.googleapis.com/patents/grant_full_text/2008/ipg080826.zip'
p195
aS'http://storage.googleapis.com/patents/grant_full_text/2008/ipg080902.zip'
p196
aS'http://storage.googleapis.com/patents/grant_full_text/2008/ipg080909.zip'
p197
aS'http://storage.googleapis.com/patents/grant_full_text/2008/ipg080916.zip'
p198
aS'http://storage.googleapis.com/patents/grant_full_text/2008/ipg080923.zip'
p199
aS'http://storage.googleapis.com/patents/grant_full_text/2008/ipg080930.zip'
p200
aS'http://storage.googleapis.com/patents/grant_full_text/2008/ipg081007.zip'
p201
aS'http://storage.googleapis.com/patents/grant_full_text/2008/ipg081014.zip'
p202
aS'http://storage.googleapis.com/patents/grant_full_text/2008/ipg081021.zip'
p203
aS'http://storage.googleapis.com/patents/grant_full_text/2008/ipg081028.zip'
p204
aS'http://storage.googleapis.com/patents/grant_full_text/2008/ipg081104.zip'
p205
aS'http://storage.googleapis.com/patents/grant_full_text/2008/ipg081111.zip'
p206
aS'http://storage.googleapis.com/patents/grant_full_text/2008/ipg081118.zip'
p207
aS'http://storage.googleapis.com/patents/grant_full_text/2008/ipg081125.zip'
p208
aS'http://storage.googleapis.com/patents/grant_full_text/2008/ipg081202.zip'
p209
aS'http://storage.googleapis.com/patents/grant_full_text/2008/ipg081209.zip'
p210
aS'http://storage.googleapis.com/patents/grant_full_text/2008/ipg081216.zip'
p211
aS'http://storage.googleapis.com/patents/grant_full_text/2008/ipg081223.zip'
p212
aS'http://storage.googleapis.com/patents/grant_full_text/2008/ipg081230.zip'
p213
asI2009
(lp214
S'http://storage.googleapis.com/patents/grant_full_text/2009/ipg090106.zip'
p215
aS'http://storage.googleapis.com/patents/grant_full_text/2009/ipg090113.zip'
p216
aS'http://storage.googleapis.com/patents/grant_full_text/2009/ipg090120.zip'
p217
aS'http://storage.googleapis.com/patents/grant_full_text/2009/ipg090127.zip'
p218
aS'http://storage.googleapis.com/patents/grant_full_text/2009/ipg090203.zip'
p219
aS'http://storage.googleapis.com/patents/grant_full_text/2009/ipg090210.zip'
p220
aS'http://storage.googleapis.com/patents/grant_full_text/2009/ipg090217.zip'
p221
aS'http://storage.googleapis.com/patents/grant_full_text/2009/ipg090224.zip'
p222
aS'http://storage.googleapis.com/patents/grant_full_text/2009/ipg090303.zip'
p223
aS'http://storage.googleapis.com/patents/grant_full_text/2009/ipg090310.zip'
p224
aS'http://storage.googleapis.com/patents/grant_full_text/2009/ipg090317.zip'
p225
aS'http://storage.googleapis.com/patents/grant_full_text/2009/ipg090324.zip'
p226
aS'http://storage.googleapis.com/patents/grant_full_text/2009/ipg090331.zip'
p227
aS'http://storage.googleapis.com/patents/grant_full_text/2009/ipg090407.zip'
p228
aS'http://storage.googleapis.com/patents/grant_full_text/2009/ipg090414.zip'
p229
aS'http://storage.googleapis.com/patents/grant_full_text/2009/ipg090421.zip'
p230
aS'http://storage.googleapis.com/patents/grant_full_text/2009/ipg090428.zip'
p231
aS'http://storage.googleapis.com/patents/grant_full_text/2009/ipg090505.zip'
p232
aS'http://storage.googleapis.com/patents/grant_full_text/2009/ipg090512.zip'
p233
aS'http://storage.googleapis.com/patents/grant_full_text/2009/ipg090519.zip'
p234
aS'http://storage.googleapis.com/patents/grant_full_text/2009/ipg090526.zip'
p235
aS'http://storage.googleapis.com/patents/grant_full_text/2009/ipg090602.zip'
p236
aS'http://storage.googleapis.com/patents/grant_full_text/2009/ipg090609.zip'
p237
aS'http://storage.googleapis.com/patents/grant_full_text/2009/ipg090616.zip'
p238
aS'http://storage.googleapis.com/patents/grant_full_text/2009/ipg090623.zip'
p239
aS'http://storage.googleapis.com/patents/grant_full_text/2009/ipg090630.zip'
p240
aS'http://storage.googleapis.com/patents/grant_full_text/2009/ipg090707.zip'
p241
aS'http://storage.googleapis.com/patents/grant_full_text/2009/ipg090714.zip'
p242
aS'http://storage.googleapis.com/patents/grant_full_text/2009/ipg090721.zip'
p243
aS'http://storage.googleapis.com/patents/grant_full_text/2009/ipg090728.zip'
p244
aS'http://storage.googleapis.com/patents/grant_full_text/2009/ipg090804.zip'
p245
aS'http://storage.googleapis.com/patents/grant_full_text/2009/ipg090811.zip'
p246
aS'http://storage.googleapis.com/patents/grant_full_text/2009/ipg090818.zip'
p247
aS'http://storage.googleapis.com/patents/grant_full_text/2009/ipg090825.zip'
p248
aS'http://storage.googleapis.com/patents/grant_full_text/2009/ipg090901.zip'
p249
aS'http://storage.googleapis.com/patents/grant_full_text/2009/ipg090908.zip'
p250
aS'http://storage.googleapis.com/patents/grant_full_text/2009/ipg090915.zip'
p251
aS'http://storage.googleapis.com/patents/grant_full_text/2009/ipg090922.zip'
p252
aS'http://storage.googleapis.com/patents/grant_full_text/2009/ipg090929.zip'
p253
aS'http://storage.googleapis.com/patents/grant_full_text/2009/ipg091006.zip'
p254
aS'http://storage.googleapis.com/patents/grant_full_text/2009/ipg091013.zip'
p255
aS'http://storage.googleapis.com/patents/grant_full_text/2009/ipg091020.zip'
p256
aS'http://storage.googleapis.com/patents/grant_full_text/2009/ipg091027.zip'
p257
aS'http://storage.googleapis.com/patents/grant_full_text/2009/ipg091103.zip'
p258
aS'http://storage.googleapis.com/patents/grant_full_text/2009/ipg091110.zip'
p259
aS'http://storage.googleapis.com/patents/grant_full_text/2009/ipg091117.zip'
p260
aS'http://storage.googleapis.com/patents/grant_full_text/2009/ipg091124.zip'
p261
aS'http://storage.googleapis.com/patents/grant_full_text/2009/ipg091201.zip'
p262
aS'http://storage.googleapis.com/patents/grant_full_text/2009/ipg091208.zip'
p263
aS'http://storage.googleapis.com/patents/grant_full_text/2009/ipg091215.zip'
p264
aS'http://storage.googleapis.com/patents/grant_full_text/2009/ipg091222.zip'
p265
aS'http://storage.googleapis.com/patents/grant_full_text/2009/ipg091229.zip'
p266
asI2010
(lp267
S'http://storage.googleapis.com/patents/grant_full_text/2010/ipg100105.zip'
p268
aS'http://storage.googleapis.com/patents/grant_full_text/2010/ipg100112.zip'
p269
aS'http://storage.googleapis.com/patents/grant_full_text/2010/ipg100119.zip'
p270
aS'http://storage.googleapis.com/patents/grant_full_text/2010/ipg100126.zip'
p271
aS'http://storage.googleapis.com/patents/grant_full_text/2010/ipg100202.zip'
p272
aS'http://storage.googleapis.com/patents/grant_full_text/2010/ipg100209.zip'
p273
aS'http://storage.googleapis.com/patents/grant_full_text/2010/ipg100216.zip'
p274
aS'http://storage.googleapis.com/patents/grant_full_text/2010/ipg100223.zip'
p275
aS'http://storage.googleapis.com/patents/grant_full_text/2010/ipg100302.zip'
p276
aS'http://storage.googleapis.com/patents/grant_full_text/2010/ipg100309.zip'
p277
aS'http://storage.googleapis.com/patents/grant_full_text/2010/ipg100316.zip'
p278
aS'http://storage.googleapis.com/patents/grant_full_text/2010/ipg100323.zip'
p279
aS'http://storage.googleapis.com/patents/grant_full_text/2010/ipg100330.zip'
p280
aS'http://storage.googleapis.com/patents/grant_full_text/2010/ipg100406.zip'
p281
aS'http://storage.googleapis.com/patents/grant_full_text/2010/ipg100413.zip'
p282
aS'http://storage.googleapis.com/patents/grant_full_text/2010/ipg100420.zip'
p283
aS'http://storage.googleapis.com/patents/grant_full_text/2010/ipg100427.zip'
p284
aS'http://storage.googleapis.com/patents/grant_full_text/2010/ipg100504.zip'
p285
aS'http://storage.googleapis.com/patents/grant_full_text/2010/ipg100511.zip'
p286
aS'http://storage.googleapis.com/patents/grant_full_text/2010/ipg100518.zip'
p287
aS'http://storage.googleapis.com/patents/grant_full_text/2010/ipg100525.zip'
p288
aS'http://storage.googleapis.com/patents/grant_full_text/2010/ipg100601.zip'
p289
aS'http://storage.googleapis.com/patents/grant_full_text/2010/ipg100608.zip'
p290
aS'http://storage.googleapis.com/patents/grant_full_text/2010/ipg100615.zip'
p291
aS'http://storage.googleapis.com/patents/grant_full_text/2010/ipg100622.zip'
p292
aS'http://storage.googleapis.com/patents/grant_full_text/2010/ipg100629.zip'
p293
aS'http://storage.googleapis.com/patents/grant_full_text/2010/ipg100706.zip'
p294
aS'http://storage.googleapis.com/patents/grant_full_text/2010/ipg100713.zip'
p295
aS'http://storage.googleapis.com/patents/grant_full_text/2010/ipg100720.zip'
p296
aS'http://storage.googleapis.com/patents/grant_full_text/2010/ipg100727.zip'
p297
aS'http://storage.googleapis.com/patents/grant_full_text/2010/ipg100803.zip'
p298
aS'http://storage.googleapis.com/patents/grant_full_text/2010/ipg100810.zip'
p299
aS'http://storage.googleapis.com/patents/grant_full_text/2010/ipg100817.zip'
p300
aS'http://storage.googleapis.com/patents/grant_full_text/2010/ipg100824.zip'
p301
aS'http://storage.googleapis.com/patents/grant_full_text/2010/ipg100831.zip'
p302
aS'http://storage.googleapis.com/patents/grant_full_text/2010/ipg100907.zip'
p303
aS'http://storage.googleapis.com/patents/grant_full_text/2010/ipg100914.zip'
p304
aS'http://storage.googleapis.com/patents/grant_full_text/2010/ipg100921.zip'
p305
aS'http://storage.googleapis.com/patents/grant_full_text/2010/ipg100928.zip'
p306
aS'http://storage.googleapis.com/patents/grant_full_text/2010/ipg101005.zip'
p307
aS'http://storage.googleapis.com/patents/grant_full_text/2010/ipg101012.zip'
p308
aS'http://storage.googleapis.com/patents/grant_full_text/2010/ipg101019.zip'
p309
aS'http://storage.googleapis.com/patents/grant_full_text/2010/ipg101026.zip'
p310
aS'http://storage.googleapis.com/patents/grant_full_text/2010/ipg101102.zip'
p311
aS'http://storage.googleapis.com/patents/grant_full_text/2010/ipg101109.zip'
p312
aS'http://storage.googleapis.com/patents/grant_full_text/2010/ipg101116.zip'
p313
aS'http://storage.googleapis.com/patents/grant_full_text/2010/ipg101123.zip'
p314
aS'http://storage.googleapis.com/patents/grant_full_text/2010/ipg101130.zip'
p315
aS'http://storage.googleapis.com/patents/grant_full_text/2010/ipg101207.zip'
p316
aS'http://storage.googleapis.com/patents/grant_full_text/2010/ipg101214.zip'
p317
aS'http://storage.googleapis.com/patents/grant_full_text/2010/ipg101221.zip'
p318
aS'http://storage.googleapis.com/patents/grant_full_text/2010/ipg101228.zip'
p319
asI2011
(lp320
S'http://storage.googleapis.com/patents/grant_full_text/2011/ipg110104.zip'
p321
aS'http://storage.googleapis.com/patents/grant_full_text/2011/ipg110111.zip'
p322
aS'http://storage.googleapis.com/patents/grant_full_text/2011/ipg110118.zip'
p323
aS'http://storage.googleapis.com/patents/grant_full_text/2011/ipg110125.zip'
p324
aS'http://storage.googleapis.com/patents/grant_full_text/2011/ipg110201.zip'
p325
aS'http://storage.googleapis.com/patents/grant_full_text/2011/ipg110208.zip'
p326
aS'http://storage.googleapis.com/patents/grant_full_text/2011/ipg110215.zip'
p327
aS'http://storage.googleapis.com/patents/grant_full_text/2011/ipg110222.zip'
p328
aS'http://storage.googleapis.com/patents/grant_full_text/2011/ipg110301.zip'
p329
aS'http://storage.googleapis.com/patents/grant_full_text/2011/ipg110308.zip'
p330
aS'http://storage.googleapis.com/patents/grant_full_text/2011/ipg110315.zip'
p331
aS'http://storage.googleapis.com/patents/grant_full_text/2011/ipg110322.zip'
p332
aS'http://storage.googleapis.com/patents/grant_full_text/2011/ipg110329.zip'
p333
aS'http://storage.googleapis.com/patents/grant_full_text/2011/ipg110405.zip'
p334
aS'http://storage.googleapis.com/patents/grant_full_text/2011/ipg110412.zip'
p335
aS'http://storage.googleapis.com/patents/grant_full_text/2011/ipg110419.zip'
p336
aS'http://storage.googleapis.com/patents/grant_full_text/2011/ipg110426.zip'
p337
aS'http://storage.googleapis.com/patents/grant_full_text/2011/ipg110503.zip'
p338
aS'http://storage.googleapis.com/patents/grant_full_text/2011/ipg110510.zip'
p339
aS'http://storage.googleapis.com/patents/grant_full_text/2011/ipg110517.zip'
p340
aS'http://storage.googleapis.com/patents/grant_full_text/2011/ipg110524.zip'
p341
aS'http://storage.googleapis.com/patents/grant_full_text/2011/ipg110531.zip'
p342
aS'http://storage.googleapis.com/patents/grant_full_text/2011/ipg110607.zip'
p343
aS'http://storage.googleapis.com/patents/grant_full_text/2011/ipg110614.zip'
p344
aS'http://storage.googleapis.com/patents/grant_full_text/2011/ipg110621.zip'
p345
aS'http://storage.googleapis.com/patents/grant_full_text/2011/ipg110628.zip'
p346
aS'http://storage.googleapis.com/patents/grant_full_text/2011/ipg110705.zip'
p347
aS'http://storage.googleapis.com/patents/grant_full_text/2011/ipg110712.zip'
p348
aS'http://storage.googleapis.com/patents/grant_full_text/2011/ipg110719.zip'
p349
aS'http://storage.googleapis.com/patents/grant_full_text/2011/ipg110726.zip'
p350
aS'http://storage.googleapis.com/patents/grant_full_text/2011/ipg110802.zip'
p351
aS'http://storage.googleapis.com/patents/grant_full_text/2011/ipg110809.zip'
p352
aS'http://storage.googleapis.com/patents/grant_full_text/2011/ipg110816.zip'
p353
aS'http://storage.googleapis.com/patents/grant_full_text/2011/ipg110823.zip'
p354
aS'http://storage.googleapis.com/patents/grant_full_text/2011/ipg110830.zip'
p355
aS'http://storage.googleapis.com/patents/grant_full_text/2011/ipg110906.zip'
p356
aS'http://storage.googleapis.com/patents/grant_full_text/2011/ipg110913.zip'
p357
aS'http://storage.googleapis.com/patents/grant_full_text/2011/ipg110920.zip'
p358
aS'http://storage.googleapis.com/patents/grant_full_text/2011/ipg110927.zip'
p359
aS'http://storage.googleapis.com/patents/grant_full_text/2011/ipg111004.zip'
p360
aS'http://storage.googleapis.com/patents/grant_full_text/2011/ipg111011.zip'
p361
aS'http://storage.googleapis.com/patents/grant_full_text/2011/ipg111018.zip'
p362
aS'http://storage.googleapis.com/patents/grant_full_text/2011/ipg111025.zip'
p363
aS'http://storage.googleapis.com/patents/grant_full_text/2011/ipg111101.zip'
p364
aS'http://storage.googleapis.com/patents/grant_full_text/2011/ipg111108.zip'
p365
aS'http://storage.googleapis.com/patents/grant_full_text/2011/ipg111115.zip'
p366
aS'http://storage.googleapis.com/patents/grant_full_text/2011/ipg111122.zip'
p367
aS'http://storage.googleapis.com/patents/grant_full_text/2011/ipg111129.zip'
p368
aS'http://storage.googleapis.com/patents/grant_full_text/2011/ipg111206.zip'
p369
aS'http://storage.googleapis.com/patents/grant_full_text/2011/ipg111213.zip'
p370
aS'http://storage.googleapis.com/patents/grant_full_text/2011/ipg111220.zip'
p371
aS'http://storage.googleapis.com/patents/grant_full_text/2011/ipg111227.zip'
p372
asI2012
(lp373
S'http://storage.googleapis.com/patents/grant_full_text/2012/ipg120103.zip'
p374
aS'http://storage.googleapis.com/patents/grant_full_text/2012/ipg120110.zip'
p375
aS'http://storage.googleapis.com/patents/grant_full_text/2012/ipg120117.zip'
p376
aS'http://storage.googleapis.com/patents/grant_full_text/2012/ipg120124.zip'
p377
aS'http://storage.googleapis.com/patents/grant_full_text/2012/ipg120131.zip'
p378
aS'http://storage.googleapis.com/patents/grant_full_text/2012/ipg120207.zip'
p379
aS'http://storage.googleapis.com/patents/grant_full_text/2012/ipg120214.zip'
p380
aS'http://storage.googleapis.com/patents/grant_full_text/2012/ipg120221.zip'
p381
aS'http://storage.googleapis.com/patents/grant_full_text/2012/ipg120228.zip'
p382
aS'http://storage.googleapis.com/patents/grant_full_text/2012/ipg120306.zip'
p383
aS'http://storage.googleapis.com/patents/grant_full_text/2012/ipg120313.zip'
p384
aS'http://storage.googleapis.com/patents/grant_full_text/2012/ipg120320.zip'
p385
aS'http://storage.googleapis.com/patents/grant_full_text/2012/ipg120327.zip'
p386
aS'http://storage.googleapis.com/patents/grant_full_text/2012/ipg120403.zip'
p387
aS'http://storage.googleapis.com/patents/grant_full_text/2012/ipg120410.zip'
p388
aS'http://storage.googleapis.com/patents/grant_full_text/2012/ipg120417.zip'
p389
aS'http://storage.googleapis.com/patents/grant_full_text/2012/ipg120424.zip'
p390
aS'http://storage.googleapis.com/patents/grant_full_text/2012/ipg120501.zip'
p391
aS'http://storage.googleapis.com/patents/grant_full_text/2012/ipg120508.zip'
p392
aS'http://storage.googleapis.com/patents/grant_full_text/2012/ipg120515.zip'
p393
aS'http://storage.googleapis.com/patents/grant_full_text/2012/ipg120522.zip'
p394
aS'http://storage.googleapis.com/patents/grant_full_text/2012/ipg120529.zip'
p395
aS'http://storage.googleapis.com/patents/grant_full_text/2012/ipg120605.zip'
p396
aS'http://storage.googleapis.com/patents/grant_full_text/2012/ipg120612.zip'
p397
aS'http://storage.googleapis.com/patents/grant_full_text/2012/ipg120619.zip'
p398
aS'http://storage.googleapis.com/patents/grant_full_text/2012/ipg120626.zip'
p399
aS'http://storage.googleapis.com/patents/grant_full_text/2012/ipg120703.zip'
p400
aS'http://storage.googleapis.com/patents/grant_full_text/2012/ipg120710.zip'
p401
aS'http://storage.googleapis.com/patents/grant_full_text/2012/ipg120717.zip'
p402
aS'http://storage.googleapis.com/patents/grant_full_text/2012/ipg120724.zip'
p403
aS'http://storage.googleapis.com/patents/grant_full_text/2012/ipg120731.zip'
p404
aS'http://storage.googleapis.com/patents/grant_full_text/2012/ipg120807.zip'
p405
aS'http://storage.googleapis.com/patents/grant_full_text/2012/ipg120814.zip'
p406
aS'http://storage.googleapis.com/patents/grant_full_text/2012/ipg120821.zip'
p407
aS'http://storage.googleapis.com/patents/grant_full_text/2012/ipg120828.zip'
p408
aS'http://storage.googleapis.com/patents/grant_full_text/2012/ipg120904.zip'
p409
aS'http://storage.googleapis.com/patents/grant_full_text/2012/ipg120911.zip'
p410
aS'http://storage.googleapis.com/patents/grant_full_text/2012/ipg120918.zip'
p411
aS'http://storage.googleapis.com/patents/grant_full_text/2012/ipg120925.zip'
p412
aS'http://storage.googleapis.com/patents/grant_full_text/2012/ipg121002.zip'
p413
aS'http://storage.googleapis.com/patents/grant_full_text/2012/ipg121009.zip'
p414
aS'http://storage.googleapis.com/patents/grant_full_text/2012/ipg121016.zip'
p415
aS'http://storage.googleapis.com/patents/grant_full_text/2012/ipg121023.zip'
p416
aS'http://storage.googleapis.com/patents/grant_full_text/2012/ipg121030.zip'
p417
aS'http://storage.googleapis.com/patents/grant_full_text/2012/ipg121106.zip'
p418
aS'http://storage.googleapis.com/patents/grant_full_text/2012/ipg121113.zip'
p419
aS'http://storage.googleapis.com/patents/grant_full_text/2012/ipg121120.zip'
p420
aS'http://storage.googleapis.com/patents/grant_full_text/2012/ipg121127.zip'
p421
aS'http://storage.googleapis.com/patents/grant_full_text/2012/ipg121204.zip'
p422
aS'http://storage.googleapis.com/patents/grant_full_text/2012/ipg121211.zip'
p423
aS'http://storage.googleapis.com/patents/grant_full_text/2012/ipg121218.zip'
p424
aS'http://storage.googleapis.com/patents/grant_full_text/2012/ipg121225.zip'
p425
asI2013
(lp426
S'http://storage.googleapis.com/patents/grant_full_text/2013/ipg130101.zip'
p427
aS'http://storage.googleapis.com/patents/grant_full_text/2013/ipg130108.zip'
p428
aS'http://storage.googleapis.com/patents/grant_full_text/2013/ipg130115.zip'
p429
aS'http://storage.googleapis.com/patents/grant_full_text/2013/ipg130122.zip'
p430
aS'http://storage.googleapis.com/patents/grant_full_text/2013/ipg130129.zip'
p431
aS'http://storage.googleapis.com/patents/grant_full_text/2013/ipg130205.zip'
p432
aS'http://storage.googleapis.com/patents/grant_full_text/2013/ipg130212.zip'
p433
aS'http://storage.googleapis.com/patents/grant_full_text/2013/ipg130219.zip'
p434
aS'http://storage.googleapis.com/patents/grant_full_text/2013/ipg130226.zip'
p435
aS'http://storage.googleapis.com/patents/grant_full_text/2013/ipg130305.zip'
p436
aS'http://storage.googleapis.com/patents/grant_full_text/2013/ipg130312.zip'
p437
aS'http://storage.googleapis.com/patents/grant_full_text/2013/ipg130319.zip'
p438
aS'http://storage.googleapis.com/patents/grant_full_text/2013/ipg130326.zip'
p439
aS'http://storage.googleapis.com/patents/grant_full_text/2013/ipg130402.zip'
p440
aS'http://storage.googleapis.com/patents/grant_full_text/2013/ipg130409.zip'
p441
aS'http://storage.googleapis.com/patents/grant_full_text/2013/ipg130416.zip'
p442
aS'http://storage.googleapis.com/patents/grant_full_text/2013/ipg130423.zip'
p443
aS'http://storage.googleapis.com/patents/grant_full_text/2013/ipg130430.zip'
p444
aS'http://storage.googleapis.com/patents/grant_full_text/2013/ipg130507.zip'
p445
aS'http://storage.googleapis.com/patents/grant_full_text/2013/ipg130514.zip'
p446
aS'http://storage.googleapis.com/patents/grant_full_text/2013/ipg130521.zip'
p447
aS'http://storage.googleapis.com/patents/grant_full_text/2013/ipg130528.zip'
p448
aS'http://storage.googleapis.com/patents/grant_full_text/2013/ipg130604.zip'
p449
aS'http://storage.googleapis.com/patents/grant_full_text/2013/ipg130611.zip'
p450
aS'http://storage.googleapis.com/patents/grant_full_text/2013/ipg130618.zip'
p451
as.